; Function Attrs: nounwind uwtable
define internal void @sbr_hf_apply_noise_1(ptr noundef captures(none) %0, ptr noundef readonly captures(none) %1, ptr noundef readonly captures(none) %2, i32 noundef %3, i32 noundef %4, i32 noundef %5) #3 {
  %7 = icmp sgt i32 %5, 0
  br i1 %7, label %.lr.ph.preheader, label %sbr_hf_apply_noise.exit

.lr.ph.preheader:                                 ; preds = %6
  %8 = shl i32 %4, 1
  %9 = and i32 %8, 2
  %10 = sub nsw i32 1, %9
  %wide.trip.count = zext nneg i32 %5 to i64
  br label %.lr.ph

.lr.ph:                                           ; preds = %.lr.ph.preheader, %.thread
  %indvars.iv = phi i64 [ 0, %.lr.ph.preheader ], [ %indvars.iv.next, %.thread ]
  %.062.i19 = phi i32 [ %3, %.lr.ph.preheader ], [ %16, %.thread ]
  %.063.i18 = phi i32 [ %10, %.lr.ph.preheader ], [ %69, %.thread ]
  %11 = getelementptr inbounds nuw [2 x i32], ptr %0, i64 %indvars.iv
  %12 = load i32, ptr %11, align 4, !tbaa !19
  %13 = getelementptr inbounds nuw i8, ptr %11, i64 4
  %14 = load i32, ptr %13, align 4, !tbaa !19
  %15 = add nsw i32 %.062.i19, 1
  %16 = and i32 %15, 511
  %17 = getelementptr inbounds nuw %struct.SoftFloat, ptr %1, i64 %indvars.iv
  %18 = load i32, ptr %17, align 4, !tbaa !38
  %.not.i = icmp eq i32 %18, 0
  br i1 %.not.i, label %35, label %19

19:                                               ; preds = %.lr.ph
  %20 = getelementptr inbounds nuw i8, ptr %17, i64 4
  %21 = load i32, ptr %20, align 4, !tbaa !36
  %22 = sub nsw i32 22, %21
  %23 = icmp slt i32 %21, 22
  br i1 %23, label %24, label %sbr_hf_apply_noise.exit.sink.split

24:                                               ; preds = %19
  %25 = icmp sgt i32 %21, -8
  br i1 %25, label %26, label %.thread

26:                                               ; preds = %24
  %27 = sub nsw i32 21, %21
  %28 = shl nuw nsw i32 1, %27
  %29 = lshr i32 %28, %22
  %30 = add i32 %29, %12
  %31 = mul nsw i32 %18, %.063.i18
  %32 = add nsw i32 %28, %31
  %33 = ashr i32 %32, %22
  %34 = add i32 %33, %14
  br label %.thread

35:                                               ; preds = %.lr.ph
  %36 = getelementptr inbounds nuw %struct.SoftFloat, ptr %2, i64 %indvars.iv
  %37 = getelementptr inbounds nuw i8, ptr %36, i64 4
  %38 = load i32, ptr %37, align 4, !tbaa !36
  %39 = sub nsw i32 22, %38
  %40 = icmp slt i32 %38, 22
  br i1 %40, label %41, label %sbr_hf_apply_noise.exit.sink.split

41:                                               ; preds = %35
  %42 = icmp sgt i32 %38, -8
  br i1 %42, label %43, label %.thread

43:                                               ; preds = %41
  %44 = sub nsw i32 21, %38
  %45 = shl nuw nsw i32 1, %44
  %46 = load i32, ptr %36, align 4, !tbaa !38
  %47 = sext i32 %46 to i64
  %48 = zext nneg i32 %16 to i64
  %49 = getelementptr inbounds nuw [0 x [2 x i32]], ptr @ff_sbr_noise_table_fixed, i64 0, i64 %48
  %50 = load i32, ptr %49, align 8, !tbaa !19
  %51 = sext i32 %50 to i64
  %52 = mul nsw i64 %51, %47
  %53 = add nsw i64 %52, 1073741824
  %54 = lshr i64 %53, 31
  %55 = trunc i64 %54 to i32
  %56 = add nsw i32 %45, %55
  %57 = ashr i32 %56, %39
  %58 = add i32 %57, %12
  %59 = getelementptr inbounds nuw i8, ptr %49, i64 4
  %60 = load i32, ptr %59, align 4, !tbaa !19
  %61 = sext i32 %60 to i64
  %62 = mul nsw i64 %61, %47
  %63 = add nsw i64 %62, 1073741824
  %64 = lshr i64 %63, 31
  %65 = trunc i64 %64 to i32
  %66 = add nsw i32 %45, %65
  %67 = ashr i32 %66, %39
  %68 = add i32 %67, %14
  br label %.thread

.thread:                                          ; preds = %41, %43, %24, %26
  %.276.i = phi i32 [ %14, %24 ], [ %34, %26 ], [ %14, %41 ], [ %68, %43 ]
  %.271.i = phi i32 [ %12, %24 ], [ %30, %26 ], [ %12, %41 ], [ %58, %43 ]
  store i32 %.271.i, ptr %11, align 4, !tbaa !19
  store i32 %.276.i, ptr %13, align 4, !tbaa !19
  %69 = sub nsw i32 0, %.063.i18
  %indvars.iv.next = add nuw nsw i64 %indvars.iv, 1
  %exitcond.not = icmp eq i64 %indvars.iv.next, %wide.trip.count
  br i1 %exitcond.not, label %sbr_hf_apply_noise.exit, label %.lr.ph, !llvm.loop !40

sbr_hf_apply_noise.exit.sink.split:               ; preds = %35, %19
  %.lcssa22.sink = phi i32 [ %22, %19 ], [ %39, %35 ]
  tail call void (ptr, i32, ptr, ...) @av_log(ptr noundef null, i32 noundef 16, ptr noundef nonnull @.str, i32 noundef %.lcssa22.sink) #6
  br label %sbr_hf_apply_noise.exit

sbr_hf_apply_noise.exit:                          ; preds = %.thread, %sbr_hf_apply_noise.exit.sink.split, %6
  ret void
}